target datalayout = "e-m:e-p270:32:32-p271:32:32-p272:64:64-i64:64-i128:128-f80:128-n8:16:32:64-S128"
target triple = "x86_64-unknown-linux-gnu"

%"class.std::__cxx11::basic_string" = type { %"struct.std::__cxx11::basic_string<char>::_Alloc_hider", i64, %union.anon }
%"struct.std::__cxx11::basic_string<char>::_Alloc_hider" = type { ptr }
%union.anon = type { i64, [8 x i8] }
%"struct.std::_Rb_tree_header" = type { %"struct.std::_Rb_tree_node_base", i64 }
%"struct.std::_Rb_tree_node_base" = type { i32, ptr, ptr, ptr }
%"class.rocksdb::OffsetableCacheKey" = type { %"class.rocksdb::CacheKey" }
%"class.rocksdb::CacheKey" = type { i64, i64 }
%"struct.rocksdb::TableProperties" = type { i64, i64, i64, i64, i64, i64, i64, i64, i64, i64, i64, i64, i64, i64, i64, i64, i64, i64, i64, i64, i64, i64, i64, i64, i64, i64, i64, %"class.std::__cxx11::basic_string", %"class.std::__cxx11::basic_string", %"class.std::__cxx11::basic_string", %"class.std::__cxx11::basic_string", %"class.std::__cxx11::basic_string", %"class.std::__cxx11::basic_string", %"class.std::__cxx11::basic_string", %"class.std::__cxx11::basic_string", %"class.std::__cxx11::basic_string", %"class.std::__cxx11::basic_string", %"class.std::__cxx11::basic_string", %"class.std::__cxx11::basic_string", %"class.std::map.265", %"class.std::map.265" }
%"class.std::map.265" = type { %"class.std::_Rb_tree.266" }
%"class.std::_Rb_tree.266" = type { %"struct.std::_Rb_tree<std::__cxx11::basic_string<char>, std::pair<const std::__cxx11::basic_string<char>, std::__cxx11::basic_string<char>>, std::_Select1st<std::pair<const std::__cxx11::basic_string<char>, std::__cxx11::basic_string<char>>>, std::less<std::__cxx11::basic_string<char>>>::_Rb_tree_impl" }
%"struct.std::_Rb_tree<std::__cxx11::basic_string<char>, std::pair<const std::__cxx11::basic_string<char>, std::__cxx11::basic_string<char>>, std::_Select1st<std::pair<const std::__cxx11::basic_string<char>, std::__cxx11::basic_string<char>>>, std::less<std::__cxx11::basic_string<char>>>::_Rb_tree_impl" = type { %"struct.std::_Rb_tree_key_compare.270", %"struct.std::_Rb_tree_header" }
%"struct.std::_Rb_tree_key_compare.270" = type { %"struct.std::less.271" }
%"struct.std::less.271" = type { i8 }

@.str.4 = private unnamed_addr constant [8 x i8] c"unknown\00", align 1

; Function Attrs: mustprogress uwtable
define void @_ZN7rocksdb15BlockBasedTable17SetupBaseCacheKeyEPKNS_15TablePropertiesERKNSt7__cxx1112basic_stringIcSt11char_traitsIcESaIcEEEmPNS_18OffsetableCacheKeyEPb(ptr noundef %properties, ptr noundef nonnull align 8 dereferenceable(32) %cur_db_session_id, i64 noundef %cur_file_number, ptr noundef %out_base_cache_key, ptr noundef %out_is_stable) #0 align 2 personality ptr @__gxx_personality_v0 {
entry:
  %properties.addr = alloca ptr, align 8
  %cur_db_session_id.addr = alloca ptr, align 8
  %cur_file_number.addr = alloca i64, align 8
  %out_base_cache_key.addr = alloca ptr, align 8
  %out_is_stable.addr = alloca ptr, align 8
  %db_session_id = alloca %"class.std::__cxx11::basic_string", align 8
  %file_num = alloca i64, align 8
  %db_id = alloca %"class.std::__cxx11::basic_string", align 8
  %exn.slot = alloca ptr, align 8
  %ehselector.slot = alloca i32, align 4
  %ref.tmp = alloca %"class.rocksdb::OffsetableCacheKey", align 8
  store ptr %properties, ptr %properties.addr, align 8
  store ptr %cur_db_session_id, ptr %cur_db_session_id.addr, align 8
  store i64 %cur_file_number, ptr %cur_file_number.addr, align 8
  store ptr %out_base_cache_key, ptr %out_base_cache_key.addr, align 8
  store ptr %out_is_stable, ptr %out_is_stable.addr, align 8
  call void @_ZNSt7__cxx1112basic_stringIcSt11char_traitsIcESaIcEEC1Ev(ptr noundef nonnull align 8 dereferenceable(32) %db_session_id) #3
  call void @_ZNSt7__cxx1112basic_stringIcSt11char_traitsIcESaIcEEC1Ev(ptr noundef nonnull align 8 dereferenceable(32) %db_id) #3
  %0 = load ptr, ptr %properties.addr, align 8
  %tobool = icmp ne ptr %0, null
  br i1 %tobool, label %land.lhs.true, label %if.else

land.lhs.true:                                    ; preds = %entry
  %1 = load ptr, ptr %properties.addr, align 8
  %db_session_id1 = getelementptr inbounds %"struct.rocksdb::TableProperties", ptr %1, i32 0, i32 28
  %call = call noundef zeroext i1 @_ZNKSt7__cxx1112basic_stringIcSt11char_traitsIcESaIcEE5emptyEv(ptr noundef nonnull align 8 dereferenceable(32) %db_session_id1) #3
  br i1 %call, label %if.else, label %land.lhs.true2

land.lhs.true2:                                   ; preds = %land.lhs.true
  %2 = load ptr, ptr %properties.addr, align 8
  %orig_file_number = getelementptr inbounds %"struct.rocksdb::TableProperties", ptr %2, i32 0, i32 0
  %3 = load i64, ptr %orig_file_number, align 8
  %cmp = icmp ugt i64 %3, 0
  br i1 %cmp, label %if.then, label %if.else

if.then:                                          ; preds = %land.lhs.true2
  %4 = load ptr, ptr %properties.addr, align 8
  %db_session_id3 = getelementptr inbounds %"struct.rocksdb::TableProperties", ptr %4, i32 0, i32 28
  %call4 = invoke noundef nonnull align 8 dereferenceable(32) ptr @_ZNSt7__cxx1112basic_stringIcSt11char_traitsIcESaIcEEaSERKS4_(ptr noundef nonnull align 8 dereferenceable(32) %db_session_id, ptr noundef nonnull align 8 dereferenceable(32) %db_session_id3)
          to label %invoke.cont unwind label %lpad

invoke.cont:                                      ; preds = %if.then
  %5 = load ptr, ptr %properties.addr, align 8
  %orig_file_number5 = getelementptr inbounds %"struct.rocksdb::TableProperties", ptr %5, i32 0, i32 0
  %6 = load i64, ptr %orig_file_number5, align 8
  store i64 %6, ptr %file_num, align 8
  %7 = load ptr, ptr %properties.addr, align 8
  %db_id6 = getelementptr inbounds %"struct.rocksdb::TableProperties", ptr %7, i32 0, i32 27
  %call8 = invoke noundef nonnull align 8 dereferenceable(32) ptr @_ZNSt7__cxx1112basic_stringIcSt11char_traitsIcESaIcEEaSERKS4_(ptr noundef nonnull align 8 dereferenceable(32) %db_id, ptr noundef nonnull align 8 dereferenceable(32) %db_id6)
          to label %invoke.cont7 unwind label %lpad

invoke.cont7:                                     ; preds = %invoke.cont
  %8 = load ptr, ptr %out_is_stable.addr, align 8
  %tobool9 = icmp ne ptr %8, null
  br i1 %tobool9, label %if.then10, label %if.end

if.then10:                                        ; preds = %invoke.cont7
  %9 = load ptr, ptr %out_is_stable.addr, align 8
  store i8 1, ptr %9, align 1
  br label %if.end

lpad:                                             ; preds = %if.end18, %invoke.cont11, %if.else, %invoke.cont, %if.then
  %10 = landingpad { ptr, i32 }
          cleanup
  %11 = extractvalue { ptr, i32 } %10, 0
  store ptr %11, ptr %exn.slot, align 8
  %12 = extractvalue { ptr, i32 } %10, 1
  store i32 %12, ptr %ehselector.slot, align 4
  call void @_ZNSt7__cxx1112basic_stringIcSt11char_traitsIcESaIcEED1Ev(ptr noundef nonnull align 8 dereferenceable(32) %db_id) #3
  call void @_ZNSt7__cxx1112basic_stringIcSt11char_traitsIcESaIcEED1Ev(ptr noundef nonnull align 8 dereferenceable(32) %db_session_id) #3
  br label %eh.resume

if.end:                                           ; preds = %if.then10, %invoke.cont7
  br label %if.end18

if.else:                                          ; preds = %land.lhs.true2, %land.lhs.true, %entry
  %13 = load ptr, ptr %cur_db_session_id.addr, align 8
  %call12 = invoke noundef nonnull align 8 dereferenceable(32) ptr @_ZNSt7__cxx1112basic_stringIcSt11char_traitsIcESaIcEEaSERKS4_(ptr noundef nonnull align 8 dereferenceable(32) %db_session_id, ptr noundef nonnull align 8 dereferenceable(32) %13)
          to label %invoke.cont11 unwind label %lpad

invoke.cont11:                                    ; preds = %if.else
  %14 = load i64, ptr %cur_file_number.addr, align 8
  store i64 %14, ptr %file_num, align 8
  %call14 = invoke noundef nonnull align 8 dereferenceable(32) ptr @_ZNSt7__cxx1112basic_stringIcSt11char_traitsIcESaIcEEaSEPKc(ptr noundef nonnull align 8 dereferenceable(32) %db_id, ptr noundef @.str.4)
          to label %invoke.cont13 unwind label %lpad

invoke.cont13:                                    ; preds = %invoke.cont11
  %15 = load ptr, ptr %out_is_stable.addr, align 8
  %tobool15 = icmp ne ptr %15, null
  br i1 %tobool15, label %if.then16, label %if.end17

if.then16:                                        ; preds = %invoke.cont13
  %16 = load ptr, ptr %out_is_stable.addr, align 8
  store i8 0, ptr %16, align 1
  br label %if.end17

if.end17:                                         ; preds = %if.then16, %invoke.cont13
  br label %if.end18

if.end18:                                         ; preds = %if.end17, %if.end
  %17 = load i64, ptr %file_num, align 8
  invoke void @_ZN7rocksdb18OffsetableCacheKeyC1ERKNSt7__cxx1112basic_stringIcSt11char_traitsIcESaIcEEES8_m(ptr noundef nonnull align 8 dereferenceable(16) %ref.tmp, ptr noundef nonnull align 8 dereferenceable(32) %db_id, ptr noundef nonnull align 8 dereferenceable(32) %db_session_id, i64 noundef %17)
          to label %invoke.cont19 unwind label %lpad

invoke.cont19:                                    ; preds = %if.end18
  %18 = load ptr, ptr %out_base_cache_key.addr, align 8
  call void @llvm.memcpy.p0.p0.i64(ptr align 8 %18, ptr align 8 %ref.tmp, i64 16, i1 false)
  call void @_ZNSt7__cxx1112basic_stringIcSt11char_traitsIcESaIcEED1Ev(ptr noundef nonnull align 8 dereferenceable(32) %db_id) #3
  call void @_ZNSt7__cxx1112basic_stringIcSt11char_traitsIcESaIcEED1Ev(ptr noundef nonnull align 8 dereferenceable(32) %db_session_id) #3
  ret void

eh.resume:                                        ; preds = %lpad
  %exn = load ptr, ptr %exn.slot, align 8
  %sel = load i32, ptr %ehselector.slot, align 4
  %lpad.val = insertvalue { ptr, i32 } poison, ptr %exn, 0
  %lpad.val20 = insertvalue { ptr, i32 } %lpad.val, i32 %sel, 1
  resume { ptr, i32 } %lpad.val20
}