; Function Attrs: mustprogress uwtable
define void @_ZN7rocksdb15BlockBasedTable17SetupBaseCacheKeyEPKNS_15TablePropertiesERKNSt7__cxx1112basic_stringIcSt11char_traitsIcESaIcEEEmPNS_18OffsetableCacheKeyEPb(ptr noundef %properties, ptr noundef nonnull align 8 dereferenceable(32) %cur_db_session_id, i64 noundef %cur_file_number, ptr nocapture noundef writeonly %out_base_cache_key, ptr noundef writeonly %out_is_stable) local_unnamed_addr #3 align 2 personality ptr @__gxx_personality_v0 {
entry:
  %db_session_id = alloca %"class.std::__cxx11::basic_string", align 8
  %db_id = alloca %"class.std::__cxx11::basic_string", align 8
  %ref.tmp = alloca %"class.rocksdb::OffsetableCacheKey", align 8
  call void @_ZNSt7__cxx1112basic_stringIcSt11char_traitsIcESaIcEEC1Ev(ptr noundef nonnull align 8 dereferenceable(32) %db_session_id) #33
  call void @_ZNSt7__cxx1112basic_stringIcSt11char_traitsIcESaIcEEC1Ev(ptr noundef nonnull align 8 dereferenceable(32) %db_id) #33
  %tobool.not = icmp eq ptr %properties, null
  br i1 %tobool.not, label %if.else, label %land.lhs.true

land.lhs.true:                                    ; preds = %entry
  %db_session_id1 = getelementptr inbounds i8, ptr %properties, i64 248
  %call = call noundef zeroext i1 @_ZNKSt7__cxx1112basic_stringIcSt11char_traitsIcESaIcEE5emptyEv(ptr noundef nonnull align 8 dereferenceable(32) %db_session_id1) #33
  br i1 %call, label %if.else, label %land.lhs.true2

land.lhs.true2:                                   ; preds = %land.lhs.true
  %0 = load i64, ptr %properties, align 8
  %cmp.not = icmp eq i64 %0, 0
  br i1 %cmp.not, label %if.else, label %if.then

if.then:                                          ; preds = %land.lhs.true2
  %call4 = invoke noundef nonnull align 8 dereferenceable(32) ptr @_ZNSt7__cxx1112basic_stringIcSt11char_traitsIcESaIcEEaSERKS4_(ptr noundef nonnull align 8 dereferenceable(32) %db_session_id, ptr noundef nonnull align 8 dereferenceable(32) %db_session_id1)
          to label %invoke.cont unwind label %lpad

invoke.cont:                                      ; preds = %if.then
  %1 = load i64, ptr %properties, align 8
  %db_id6 = getelementptr inbounds i8, ptr %properties, i64 216
  %call8 = invoke noundef nonnull align 8 dereferenceable(32) ptr @_ZNSt7__cxx1112basic_stringIcSt11char_traitsIcESaIcEEaSERKS4_(ptr noundef nonnull align 8 dereferenceable(32) %db_id, ptr noundef nonnull align 8 dereferenceable(32) %db_id6)
          to label %invoke.cont7 unwind label %lpad

invoke.cont7:                                     ; preds = %invoke.cont
  %tobool9.not = icmp eq ptr %out_is_stable, null
  br i1 %tobool9.not, label %if.end18, label %if.end18.sink.split

lpad:                                             ; preds = %if.end18, %invoke.cont11, %if.else, %invoke.cont, %if.then
  %2 = landingpad { ptr, i32 }
          cleanup
  call void @_ZNSt7__cxx1112basic_stringIcSt11char_traitsIcESaIcEED1Ev(ptr noundef nonnull align 8 dereferenceable(32) %db_id) #33
  call void @_ZNSt7__cxx1112basic_stringIcSt11char_traitsIcESaIcEED1Ev(ptr noundef nonnull align 8 dereferenceable(32) %db_session_id) #33
  resume { ptr, i32 } %2

if.else:                                          ; preds = %land.lhs.true2, %land.lhs.true, %entry
  %call12 = invoke noundef nonnull align 8 dereferenceable(32) ptr @_ZNSt7__cxx1112basic_stringIcSt11char_traitsIcESaIcEEaSERKS4_(ptr noundef nonnull align 8 dereferenceable(32) %db_session_id, ptr noundef nonnull align 8 dereferenceable(32) %cur_db_session_id)
          to label %invoke.cont11 unwind label %lpad

invoke.cont11:                                    ; preds = %if.else
  %call14 = invoke noundef nonnull align 8 dereferenceable(32) ptr @_ZNSt7__cxx1112basic_stringIcSt11char_traitsIcESaIcEEaSEPKc(ptr noundef nonnull align 8 dereferenceable(32) %db_id, ptr noundef nonnull @.str.4)
          to label %invoke.cont13 unwind label %lpad

invoke.cont13:                                    ; preds = %invoke.cont11
  %tobool15.not = icmp eq ptr %out_is_stable, null
  br i1 %tobool15.not, label %if.end18, label %if.end18.sink.split

if.end18.sink.split:                              ; preds = %invoke.cont13, %invoke.cont7
  %.sink = phi i8 [ 1, %invoke.cont7 ], [ 0, %invoke.cont13 ]
  %file_num.0.ph = phi i64 [ %1, %invoke.cont7 ], [ %cur_file_number, %invoke.cont13 ]
  store i8 %.sink, ptr %out_is_stable, align 1
  br label %if.end18

if.end18:                                         ; preds = %if.end18.sink.split, %invoke.cont13, %invoke.cont7
  %file_num.0 = phi i64 [ %cur_file_number, %invoke.cont13 ], [ %1, %invoke.cont7 ], [ %file_num.0.ph, %if.end18.sink.split ]
  invoke void @_ZN7rocksdb18OffsetableCacheKeyC1ERKNSt7__cxx1112basic_stringIcSt11char_traitsIcESaIcEEES8_m(ptr noundef nonnull align 8 dereferenceable(16) %ref.tmp, ptr noundef nonnull align 8 dereferenceable(32) %db_id, ptr noundef nonnull align 8 dereferenceable(32) %db_session_id, i64 noundef %file_num.0)
          to label %invoke.cont19 unwind label %lpad

invoke.cont19:                                    ; preds = %if.end18
  call void @llvm.memcpy.p0.p0.i64(ptr noundef nonnull align 8 dereferenceable(16) %out_base_cache_key, ptr noundef nonnull align 8 dereferenceable(16) %ref.tmp, i64 16, i1 false)
  call void @_ZNSt7__cxx1112basic_stringIcSt11char_traitsIcESaIcEED1Ev(ptr noundef nonnull align 8 dereferenceable(32) %db_id) #33
  call void @_ZNSt7__cxx1112basic_stringIcSt11char_traitsIcESaIcEED1Ev(ptr noundef nonnull align 8 dereferenceable(32) %db_session_id) #33
  ret void
}